target datalayout = "e-m:e-p270:32:32-p271:32:32-p272:64:64-i64:64-i128:128-f80:128-n8:16:32:64-S128"
target triple = "x86_64-pc-linux-gnu"

@.str.3 = private unnamed_addr constant [3 x i8] c"-t\00", align 1
@.str.4 = private unnamed_addr constant [1 x i8] zeroinitializer, align 1
@.str.7 = private unnamed_addr constant [4 x i8] c"&ps\00", align 1
@.str.16 = private unnamed_addr constant [46 x i8] c"&dsdb; &dch -C 500; &if -K %d -C %d %s; &save\00", align 1
@.str.17 = private unnamed_addr constant [47 x i8] c"Mapping with &dch -C 500; &if -K %d -C %d %s:\0A\00", align 1
@.str.18 = private unnamed_addr constant [4 x i8] c"&st\00", align 1
@.str.19 = private unnamed_addr constant [6 x i8] c"&dsdb\00", align 1
@.str.20 = private unnamed_addr constant [22 x i8] c"&syn2 -m -R 10; &dsdb\00", align 1
@.str.21 = private unnamed_addr constant [15 x i8] c"&blut -a -K %d\00", align 1

; Function Attrs: nounwind uwtable
define void @Gia_ManPerformRound(i32 noundef %0, i32 noundef %1, i32 noundef %2, i32 noundef %3, i32 noundef %4, i32 noundef %5, i32 noundef %6, i32 noundef %7) #0 {
  %9 = alloca i32, align 4
  %10 = alloca i32, align 4
  %11 = alloca i32, align 4
  %12 = alloca i32, align 4
  %13 = alloca i32, align 4
  %14 = alloca i32, align 4
  %15 = alloca i32, align 4
  %16 = alloca i32, align 4
  %17 = alloca [200 x i8], align 16
  store i32 %0, ptr %9, align 4
  store i32 %1, ptr %10, align 4
  store i32 %2, ptr %11, align 4
  store i32 %3, ptr %12, align 4
  store i32 %4, ptr %13, align 4
  store i32 %5, ptr %14, align 4
  store i32 %6, ptr %15, align 4
  store i32 %7, ptr %16, align 4
  %18 = load i32, ptr %10, align 4
  %19 = icmp slt i32 %18, 50000
  br i1 %19, label %20, label %47

20:                                               ; preds = %8
  %21 = call ptr (...) @Abc_FrameGetGlobalFrame()
  %22 = call i32 @Cmd_CommandExecute(ptr noundef %21, ptr noundef @.str.4)
  %23 = getelementptr inbounds [200 x i8], ptr %17, i64 0, i64 0
  %24 = load i32, ptr %12, align 4
  %25 = load i32, ptr %13, align 4
  %26 = load i32, ptr %14, align 4
  %27 = icmp ne i32 %26, 0
  %28 = select i1 %27, ptr @.str.3, ptr @.str.4
  %29 = call i32 (ptr, ptr, ...) @sprintf(ptr noundef %23, ptr noundef @.str.16, i32 noundef %24, i32 noundef %25, ptr noundef %28) #9
  %30 = call ptr (...) @Abc_FrameGetGlobalFrame()
  %31 = getelementptr inbounds [200 x i8], ptr %17, i64 0, i64 0
  %32 = call i32 @Cmd_CommandExecute(ptr noundef %30, ptr noundef %31)
  %33 = load i32, ptr %16, align 4
  %34 = icmp ne i32 %33, 0
  br i1 %34, label %35, label %44

35:                                               ; preds = %20
  %36 = load i32, ptr %12, align 4
  %37 = load i32, ptr %13, align 4
  %38 = load i32, ptr %14, align 4
  %39 = icmp ne i32 %38, 0
  %40 = select i1 %39, ptr @.str.3, ptr @.str.4
  %41 = call i32 (ptr, ...) @printf(ptr noundef @.str.17, i32 noundef %36, i32 noundef %37, ptr noundef %40)
  %42 = call ptr (...) @Abc_FrameGetGlobalFrame()
  %43 = call i32 @Cmd_CommandExecute(ptr noundef %42, ptr noundef @.str.7)
  br label %44

44:                                               ; preds = %35, %20
  %45 = call ptr (...) @Abc_FrameGetGlobalFrame()
  %46 = call i32 @Cmd_CommandExecute(ptr noundef %45, ptr noundef @.str.18)
  br label %47

47:                                               ; preds = %44, %8
  %48 = load i32, ptr %10, align 4
  %49 = icmp slt i32 %48, 20000
  br i1 %49, label %50, label %77

50:                                               ; preds = %47
  %51 = call ptr (...) @Abc_FrameGetGlobalFrame()
  %52 = call i32 @Cmd_CommandExecute(ptr noundef %51, ptr noundef @.str.4)
  %53 = getelementptr inbounds [200 x i8], ptr %17, i64 0, i64 0
  %54 = load i32, ptr %12, align 4
  %55 = load i32, ptr %13, align 4
  %56 = load i32, ptr %14, align 4
  %57 = icmp ne i32 %56, 0
  %58 = select i1 %57, ptr @.str.3, ptr @.str.4
  %59 = call i32 (ptr, ptr, ...) @sprintf(ptr noundef %53, ptr noundef @.str.16, i32 noundef %54, i32 noundef %55, ptr noundef %58) #9
  %60 = call ptr (...) @Abc_FrameGetGlobalFrame()
  %61 = getelementptr inbounds [200 x i8], ptr %17, i64 0, i64 0
  %62 = call i32 @Cmd_CommandExecute(ptr noundef %60, ptr noundef %61)
  %63 = load i32, ptr %16, align 4
  %64 = icmp ne i32 %63, 0
  br i1 %64, label %65, label %74

65:                                               ; preds = %50
  %66 = load i32, ptr %12, align 4
  %67 = load i32, ptr %13, align 4
  %68 = load i32, ptr %14, align 4
  %69 = icmp ne i32 %68, 0
  %70 = select i1 %69, ptr @.str.3, ptr @.str.4
  %71 = call i32 (ptr, ...) @printf(ptr noundef @.str.17, i32 noundef %66, i32 noundef %67, ptr noundef %70)
  %72 = call ptr (...) @Abc_FrameGetGlobalFrame()
  %73 = call i32 @Cmd_CommandExecute(ptr noundef %72, ptr noundef @.str.7)
  br label %74

74:                                               ; preds = %65, %50
  %75 = call ptr (...) @Abc_FrameGetGlobalFrame()
  %76 = call i32 @Cmd_CommandExecute(ptr noundef %75, ptr noundef @.str.18)
  br label %77

77:                                               ; preds = %74, %47
  %78 = load i32, ptr %10, align 4
  %79 = load i32, ptr %12, align 4
  %80 = load i32, ptr %13, align 4
  %81 = load i32, ptr %14, align 4
  %82 = load i32, ptr %15, align 4
  %83 = load i32, ptr %16, align 4
  call void @Gia_ManPerformMap(i32 noundef %78, i32 noundef %79, i32 noundef %80, i32 noundef %81, i32 noundef %82, i32 noundef %83)
  %84 = call ptr (...) @Abc_FrameGetGlobalFrame()
  %85 = call i32 @Cmd_CommandExecute(ptr noundef %84, ptr noundef @.str.18)
  %86 = call ptr (...) @Abc_FrameGetGlobalFrame()
  %87 = call i32 @Cmd_CommandExecute(ptr noundef %86, ptr noundef @.str.19)
  %88 = load i32, ptr %10, align 4
  %89 = load i32, ptr %12, align 4
  %90 = load i32, ptr %13, align 4
  %91 = load i32, ptr %14, align 4
  %92 = load i32, ptr %15, align 4
  %93 = load i32, ptr %16, align 4
  call void @Gia_ManPerformMap(i32 noundef %88, i32 noundef %89, i32 noundef %90, i32 noundef %91, i32 noundef %92, i32 noundef %93)
  %94 = call ptr (...) @Abc_FrameGetGlobalFrame()
  %95 = call i32 @Cmd_CommandExecute(ptr noundef %94, ptr noundef @.str.18)
  %96 = call ptr (...) @Abc_FrameGetGlobalFrame()
  %97 = call i32 @Cmd_CommandExecute(ptr noundef %96, ptr noundef @.str.20)
  %98 = getelementptr inbounds [200 x i8], ptr %17, i64 0, i64 0
  %99 = load i32, ptr %12, align 4
  %100 = call i32 (ptr, ptr, ...) @sprintf(ptr noundef %98, ptr noundef @.str.21, i32 noundef %99) #9
  %101 = call ptr (...) @Abc_FrameGetGlobalFrame()
  %102 = getelementptr inbounds [200 x i8], ptr %17, i64 0, i64 0
  %103 = call i32 @Cmd_CommandExecute(ptr noundef %101, ptr noundef %102)
  %104 = load i32, ptr %10, align 4
  %105 = load i32, ptr %12, align 4
  %106 = load i32, ptr %13, align 4
  %107 = load i32, ptr %14, align 4
  %108 = load i32, ptr %15, align 4
  %109 = load i32, ptr %16, align 4
  call void @Gia_ManPerformMap(i32 noundef %104, i32 noundef %105, i32 noundef %106, i32 noundef %107, i32 noundef %108, i32 noundef %109)
  ret void
}