; Function Attrs: nounwind uwtable
define void @Gia_ManPerformRound(i32 %0, i32 noundef %1, i32 %2, i32 noundef %3, i32 noundef %4, i32 noundef %5, i32 noundef %6, i32 noundef %7) local_unnamed_addr #0 {
  %9 = alloca [200 x i8], align 16
  %10 = icmp slt i32 %1, 50000
  br i1 %10, label %11, label %.thread

11:                                               ; preds = %8
  %12 = tail call ptr (...) @Abc_FrameGetGlobalFrame() #15
  %13 = tail call i32 @Cmd_CommandExecute(ptr noundef %12, ptr noundef nonnull @.str.4) #15
  %.not = icmp eq i32 %5, 0
  %14 = select i1 %.not, ptr @.str.4, ptr @.str.3
  %15 = call i32 (ptr, ptr, ...) @sprintf(ptr noundef nonnull dereferenceable(1) %9, ptr noundef nonnull dereferenceable(1) @.str.16, i32 noundef %3, i32 noundef %4, ptr noundef nonnull %14) #15
  %16 = tail call ptr (...) @Abc_FrameGetGlobalFrame() #15
  %17 = call i32 @Cmd_CommandExecute(ptr noundef %16, ptr noundef nonnull %9) #15
  %.not35 = icmp eq i32 %7, 0
  br i1 %.not35, label %22, label %18

18:                                               ; preds = %11
  %19 = call i32 (ptr, ...) @printf(ptr noundef nonnull dereferenceable(1) @.str.17, i32 noundef %3, i32 noundef %4, ptr noundef nonnull %14)
  %20 = call ptr (...) @Abc_FrameGetGlobalFrame() #15
  %21 = call i32 @Cmd_CommandExecute(ptr noundef %20, ptr noundef nonnull @.str.7) #15
  br label %22

22:                                               ; preds = %11, %18
  %23 = call ptr (...) @Abc_FrameGetGlobalFrame() #15
  %24 = call i32 @Cmd_CommandExecute(ptr noundef %23, ptr noundef nonnull @.str.18) #15
  %25 = icmp slt i32 %1, 20000
  br i1 %25, label %26, label %.thread

26:                                               ; preds = %22
  %27 = call ptr (...) @Abc_FrameGetGlobalFrame() #15
  %28 = call i32 @Cmd_CommandExecute(ptr noundef %27, ptr noundef nonnull @.str.4) #15
  %29 = call i32 (ptr, ptr, ...) @sprintf(ptr noundef nonnull dereferenceable(1) %9, ptr noundef nonnull dereferenceable(1) @.str.16, i32 noundef %3, i32 noundef %4, ptr noundef nonnull %14) #15
  %30 = call ptr (...) @Abc_FrameGetGlobalFrame() #15
  %31 = call i32 @Cmd_CommandExecute(ptr noundef %30, ptr noundef nonnull %9) #15
  br i1 %.not35, label %36, label %32

32:                                               ; preds = %26
  %33 = call i32 (ptr, ...) @printf(ptr noundef nonnull dereferenceable(1) @.str.17, i32 noundef %3, i32 noundef %4, ptr noundef nonnull %14)
  %34 = call ptr (...) @Abc_FrameGetGlobalFrame() #15
  %35 = call i32 @Cmd_CommandExecute(ptr noundef %34, ptr noundef nonnull @.str.7) #15
  br label %36

36:                                               ; preds = %32, %26
  %37 = call ptr (...) @Abc_FrameGetGlobalFrame() #15
  %38 = call i32 @Cmd_CommandExecute(ptr noundef %37, ptr noundef nonnull @.str.18) #15
  br label %.thread

.thread:                                          ; preds = %8, %36, %22
  call void @Gia_ManPerformMap(i32 noundef %1, i32 noundef %3, i32 noundef %4, i32 noundef %5, i32 noundef %6, i32 noundef %7)
  %39 = call ptr (...) @Abc_FrameGetGlobalFrame() #15
  %40 = call i32 @Cmd_CommandExecute(ptr noundef %39, ptr noundef nonnull @.str.18) #15
  %41 = call ptr (...) @Abc_FrameGetGlobalFrame() #15
  %42 = call i32 @Cmd_CommandExecute(ptr noundef %41, ptr noundef nonnull @.str.19) #15
  call void @Gia_ManPerformMap(i32 noundef %1, i32 noundef %3, i32 noundef %4, i32 noundef %5, i32 noundef %6, i32 noundef %7)
  %43 = call ptr (...) @Abc_FrameGetGlobalFrame() #15
  %44 = call i32 @Cmd_CommandExecute(ptr noundef %43, ptr noundef nonnull @.str.18) #15
  %45 = call ptr (...) @Abc_FrameGetGlobalFrame() #15
  %46 = call i32 @Cmd_CommandExecute(ptr noundef %45, ptr noundef nonnull @.str.20) #15
  %47 = call i32 (ptr, ptr, ...) @sprintf(ptr noundef nonnull dereferenceable(1) %9, ptr noundef nonnull dereferenceable(1) @.str.21, i32 noundef %3) #15
  %48 = call ptr (...) @Abc_FrameGetGlobalFrame() #15
  %49 = call i32 @Cmd_CommandExecute(ptr noundef %48, ptr noundef nonnull %9) #15
  call void @Gia_ManPerformMap(i32 noundef %1, i32 noundef %3, i32 noundef %4, i32 noundef %5, i32 noundef %6, i32 noundef %7)
  ret void
}